; Function Attrs: mustprogress uwtable
define noundef i32 @_ZNK6casadi14Multiplication10sp_forwardEPPKyPPyPxS4_(ptr noundef nonnull align 8 dereferenceable(64) %0, ptr nocapture noundef readonly %1, ptr nocapture noundef readonly %2, ptr nocapture readnone %3, ptr noundef %4) unnamed_addr #3 align 2 {
  %6 = load ptr, ptr %1, align 8
  %7 = load ptr, ptr %2, align 8
  %8 = load ptr, ptr %0, align 8
  %9 = getelementptr inbounds i8, ptr %8, i64 352
  %10 = load ptr, ptr %9, align 8
  %11 = tail call noundef nonnull align 8 dereferenceable(8) ptr %10(ptr noundef nonnull align 8 dereferenceable(64) %0, i64 noundef 0)
  %12 = tail call noundef i64 @_ZNK6casadi8Sparsity3nnzEv(ptr noundef nonnull align 8 dereferenceable(8) %11)
  tail call void @_ZN6casadi6MXNode8copy_fwdEPKyPyx(ptr noundef %6, ptr noundef %7, i64 noundef %12)
  %13 = getelementptr inbounds i8, ptr %1, i64 8
  %14 = load ptr, ptr %13, align 8
  %15 = getelementptr inbounds i8, ptr %0, i64 32
  %16 = getelementptr inbounds i8, ptr %0, i64 40
  %17 = load ptr, ptr %16, align 8
  %18 = load ptr, ptr %15, align 8
  %19 = ptrtoint ptr %17 to i64
  %20 = ptrtoint ptr %18 to i64
  %21 = sub i64 %19, %20
  %22 = ashr exact i64 %21, 3
  %.not.i.i.i = icmp ugt i64 %22, 1
  br i1 %.not.i.i.i, label %_ZNK6casadi6MXNode3depEx.exit, label %23

23:                                               ; preds = %5
  tail call void (ptr, ...) @_ZSt24__throw_out_of_range_fmtPKcz(ptr noundef nonnull @.str.37, i64 noundef 1, i64 noundef %22) #18
  unreachable

_ZNK6casadi6MXNode3depEx.exit:                    ; preds = %5
  %24 = getelementptr inbounds i8, ptr %18, i64 8
  %25 = tail call noundef nonnull align 8 dereferenceable(8) ptr @_ZNK6casadi2MX8sparsityEv(ptr noundef nonnull align 8 dereferenceable(8) %24)
  %26 = load ptr, ptr %16, align 8
  %27 = load ptr, ptr %15, align 8
  %28 = ptrtoint ptr %26 to i64
  %29 = ptrtoint ptr %27 to i64
  %30 = sub i64 %28, %29
  %31 = ashr exact i64 %30, 3
  %.not.i.i.i7 = icmp ugt i64 %31, 2
  br i1 %.not.i.i.i7, label %_ZNK6casadi6MXNode3depEx.exit8, label %32

32:                                               ; preds = %_ZNK6casadi6MXNode3depEx.exit
  tail call void (ptr, ...) @_ZSt24__throw_out_of_range_fmtPKcz(ptr noundef nonnull @.str.37, i64 noundef 2, i64 noundef %31) #18
  unreachable

_ZNK6casadi6MXNode3depEx.exit8:                   ; preds = %_ZNK6casadi6MXNode3depEx.exit
  %33 = getelementptr inbounds i8, ptr %1, i64 16
  %34 = load ptr, ptr %33, align 8
  %35 = getelementptr inbounds i8, ptr %27, i64 16
  %36 = tail call noundef nonnull align 8 dereferenceable(8) ptr @_ZNK6casadi2MX8sparsityEv(ptr noundef nonnull align 8 dereferenceable(8) %35)
  %37 = load ptr, ptr %2, align 8
  %38 = getelementptr inbounds i8, ptr %0, i64 56
  tail call void @_ZN6casadi8Sparsity13mul_sparsityFEPKyRKS0_S2_S4_PyS4_S5_(ptr noundef %14, ptr noundef nonnull align 8 dereferenceable(8) %25, ptr noundef %34, ptr noundef nonnull align 8 dereferenceable(8) %36, ptr noundef %37, ptr noundef nonnull align 8 dereferenceable(8) %38, ptr noundef %4)
  ret i32 0
}